; Function Attrs: nounwind sspstrong uwtable
define internal fastcc void @fold_not(ptr noundef nonnull %0, ptr noundef nonnull %1) unnamed_addr #0 {
  %3 = getelementptr inbounds nuw i8, ptr %1, i64 40
  %4 = load i64, ptr %3, align 8
  %5 = inttoptr i64 %4 to ptr
  %6 = getelementptr i8, ptr %5, i64 48
  %.val.i.i = load ptr, ptr %6, align 8
  %.val.val.i.i = load i8, ptr %.val.i.i, align 8, !range !15, !noundef !16
  %7 = trunc nuw i8 %.val.val.i.i to i1
  br i1 %7, label %fold_const1.exit.thread, label %fold_const1.exit

fold_const1.exit.thread:                          ; preds = %2
  %8 = getelementptr inbounds nuw i8, ptr %1, i64 32
  %9 = getelementptr inbounds nuw i8, ptr %.val.i.i, i64 40
  %10 = load i64, ptr %9, align 8
  %11 = load i32, ptr %1, align 8
  %12 = and i32 %11, 255
  %13 = getelementptr inbounds nuw i8, ptr %0, i64 112
  %14 = load i32, ptr %13, align 8
  %15 = tail call fastcc i64 @do_constant_folding(i32 noundef %12, i32 noundef %14, i64 noundef %10, i64 noundef 0)
  %16 = load i64, ptr %8, align 8
  %17 = tail call fastcc i64 @arg_new_constant(ptr noundef nonnull %0, i64 noundef %15)
  tail call fastcc void @tcg_opt_gen_mov(ptr noundef nonnull %0, ptr noundef nonnull %1, i64 noundef %16, i64 noundef %17)
  br label %40

fold_const1.exit:                                 ; preds = %2
  %18 = getelementptr inbounds nuw i8, ptr %.val.i.i, i64 56
  %19 = load i64, ptr %18, align 8
  %.val = load i32, ptr %1, align 8
  %20 = getelementptr i8, ptr %1, i64 32
  %.val6 = load i64, ptr %20, align 8
  %21 = and i32 %.val, 255
  %22 = zext nneg i32 %21 to i64
  %23 = getelementptr inbounds nuw [0 x %struct.TCGOpDef], ptr @tcg_op_defs, i64 0, i64 %22, i32 1
  %24 = load i8, ptr %23, align 8
  %25 = icmp eq i8 %24, 1
  tail call void @llvm.assume(i1 %25)
  %26 = getelementptr inbounds nuw i8, ptr %0, i64 112
  %27 = load i32, ptr %26, align 8
  %28 = icmp eq i32 %27, 0
  %29 = or i64 %19, -2147483648
  %.032.i.i = select i1 %28, i64 %29, i64 %19
  %30 = inttoptr i64 %.val6 to ptr
  tail call fastcc void @reset_ts(ptr noundef nonnull %0, ptr noundef %30)
  %31 = getelementptr i8, ptr %30, i64 48
  %.val.i.i7 = load ptr, ptr %31, align 8
  %32 = getelementptr inbounds nuw i8, ptr %.val.i.i7, i64 48
  store i64 -1, ptr %32, align 8
  %33 = xor i64 %.032.i.i, -1
  %34 = tail call range(i64 0, 65) i64 @llvm.ctlz.i64(i64 %33, i1 false)
  %35 = trunc nuw nsw i64 %34 to i32
  %36 = tail call i32 @llvm.usub.sat.i32(i32 %35, i32 1)
  %37 = zext nneg i32 %36 to i64
  %38 = ashr exact i64 -9223372036854775808, %37
  %39 = getelementptr inbounds nuw i8, ptr %.val.i.i7, i64 56
  store i64 %38, ptr %39, align 8
  br label %40

40:                                               ; preds = %fold_const1.exit.thread, %fold_const1.exit
  ret void
}